target datalayout = "e-m:e-p270:32:32-p271:32:32-p272:64:64-i64:64-i128:128-f80:128-n8:16:32:64-S128"
target triple = "x86_64-pc-linux-gnu"

%struct._object = type { %union.anon, ptr }
%union.anon = type { i64 }
%struct.PyVarObject = type { %struct._object, i64 }
%struct.PyTupleObject = type { %struct.PyVarObject, [1 x ptr] }
%struct.anon = type { i32, i32 }
%struct.partialobject = type { %struct._object, ptr, ptr, ptr, ptr, ptr, ptr, i64, ptr }

@.str.20 = private unnamed_addr constant [4 x i8] c"...\00", align 1
@.str.21 = private unnamed_addr constant [7 x i8] c"%U, %R\00", align 1
@.str.22 = private unnamed_addr constant [10 x i8] c"%U, %S=%R\00", align 1
@.str.23 = private unnamed_addr constant [12 x i8] c"%S.%S(%R%U)\00", align 1

; Function Attrs: alwaysinline nounwind uwtable
define internal i32 @_Py_IsImmortal(ptr noundef %0) #4 {
  %2 = alloca ptr, align 8
  store ptr %0, ptr %2, align 8, !tbaa !4
  %3 = load ptr, ptr %2, align 8, !tbaa !4
  %4 = getelementptr inbounds nuw %struct._object, ptr %3, i32 0, i32 0
  %5 = getelementptr inbounds nuw %struct.anon, ptr %4, i32 0, i32 0
  %6 = load i32, ptr %5, align 8, !tbaa !32
  %7 = icmp slt i32 %6, 0
  %8 = zext i1 %7 to i32
  ret i32 %8
}

; Function Attrs: inlinehint nounwind uwtable
define internal i64 @Py_SIZE(ptr noundef %0) #3 {
  %2 = alloca ptr, align 8
  store ptr %0, ptr %2, align 8, !tbaa !4
  %3 = load ptr, ptr %2, align 8, !tbaa !4
  %4 = getelementptr inbounds nuw %struct.PyVarObject, ptr %3, i32 0, i32 1
  %5 = load i64, ptr %4, align 8, !tbaa !29
  ret i64 %5
}

; Function Attrs: inlinehint nounwind uwtable
define internal ptr @_Py_TYPE(ptr noundef %0) #3 {
  %2 = alloca ptr, align 8
  store ptr %0, ptr %2, align 8, !tbaa !4
  %3 = load ptr, ptr %2, align 8, !tbaa !4
  %4 = getelementptr inbounds nuw %struct._object, ptr %3, i32 0, i32 1
  %5 = load ptr, ptr %4, align 8, !tbaa !129
  ret ptr %5
}

; Function Attrs: alwaysinline nounwind uwtable
define internal void @Py_INCREF(ptr noundef %0) #4 {
  %2 = alloca ptr, align 8
  %3 = alloca i32, align 4
  %4 = alloca i32, align 4
  store ptr %0, ptr %2, align 8, !tbaa !4
  call void @llvm.lifetime.start.p0(i64 4, ptr %3) #8
  %5 = load ptr, ptr %2, align 8, !tbaa !4
  %6 = getelementptr inbounds nuw %struct._object, ptr %5, i32 0, i32 0
  %7 = getelementptr inbounds nuw %struct.anon, ptr %6, i32 0, i32 0
  %8 = load i32, ptr %7, align 8, !tbaa !32
  store i32 %8, ptr %3, align 4, !tbaa !15
  %9 = load i32, ptr %3, align 4, !tbaa !15
  %10 = icmp slt i32 %9, 0
  br i1 %10, label %11, label %12

11:                                               ; preds = %1
  store i32 1, ptr %4, align 4
  br label %18

12:                                               ; preds = %1
  %13 = load i32, ptr %3, align 4, !tbaa !15
  %14 = add i32 %13, 1
  %15 = load ptr, ptr %2, align 8, !tbaa !4
  %16 = getelementptr inbounds nuw %struct._object, ptr %15, i32 0, i32 0
  %17 = getelementptr inbounds nuw %struct.anon, ptr %16, i32 0, i32 0
  store i32 %14, ptr %17, align 8, !tbaa !32
  store i32 0, ptr %4, align 4
  br label %18

18:                                               ; preds = %12, %11
  call void @llvm.lifetime.end.p0(i64 4, ptr %3) #8
  %19 = load i32, ptr %4, align 4
  switch i32 %19, label %21 [
    i32 0, label %20
    i32 1, label %20
  ]

20:                                               ; preds = %18, %18
  ret void

21:                                               ; preds = %18
  unreachable
}

; Function Attrs: alwaysinline nounwind uwtable
define internal void @Py_DECREF(ptr noundef %0) #4 {
  %2 = alloca ptr, align 8
  store ptr %0, ptr %2, align 8, !tbaa !4
  %3 = load ptr, ptr %2, align 8, !tbaa !4
  %4 = call i32 @_Py_IsImmortal(ptr noundef %3)
  %5 = icmp ne i32 %4, 0
  br i1 %5, label %6, label %7

6:                                                ; preds = %1
  br label %16

7:                                                ; preds = %1
  %8 = load ptr, ptr %2, align 8, !tbaa !4
  %9 = getelementptr inbounds nuw %struct._object, ptr %8, i32 0, i32 0
  %10 = getelementptr inbounds nuw %struct.anon, ptr %9, i32 0, i32 0
  %11 = load i32, ptr %10, align 8, !tbaa !32
  %12 = add i32 %11, -1
  store i32 %12, ptr %10, align 8, !tbaa !32
  %13 = icmp eq i32 %12, 0
  br i1 %13, label %14, label %16

14:                                               ; preds = %7
  %15 = load ptr, ptr %2, align 8, !tbaa !4
  call void @_Py_Dealloc(ptr noundef %15)
  br label %16

16:                                               ; preds = %6, %14, %7
  ret void
}

; Function Attrs: inlinehint nounwind uwtable
define internal i64 @PyTuple_GET_SIZE(ptr noundef %0) #3 {
  %2 = alloca ptr, align 8
  %3 = alloca ptr, align 8
  store ptr %0, ptr %2, align 8, !tbaa !4
  call void @llvm.lifetime.start.p0(i64 8, ptr %3) #8
  %4 = load ptr, ptr %2, align 8, !tbaa !4
  store ptr %4, ptr %3, align 8, !tbaa !9
  %5 = load ptr, ptr %3, align 8, !tbaa !9
  %6 = call i64 @Py_SIZE(ptr noundef %5)
  call void @llvm.lifetime.end.p0(i64 8, ptr %3) #8
  ret i64 %6
}

; Function Attrs: nounwind uwtable
define internal ptr @partial_repr(ptr noundef %0) #0 {
  %2 = alloca ptr, align 8
  %3 = alloca ptr, align 8
  %4 = alloca ptr, align 8
  %5 = alloca ptr, align 8
  %6 = alloca ptr, align 8
  %7 = alloca ptr, align 8
  %8 = alloca ptr, align 8
  %9 = alloca i64, align 8
  %10 = alloca i64, align 8
  %11 = alloca ptr, align 8
  %12 = alloca ptr, align 8
  %13 = alloca i32, align 4
  %14 = alloca i32, align 4
  %15 = alloca ptr, align 8
  %16 = alloca ptr, align 8
  %17 = alloca ptr, align 8
  %18 = alloca ptr, align 8
  store ptr %0, ptr %3, align 8, !tbaa !4
  call void @llvm.lifetime.start.p0(i64 8, ptr %4) #8
  %19 = load ptr, ptr %3, align 8, !tbaa !4
  store ptr %19, ptr %4, align 8, !tbaa !9
  call void @llvm.lifetime.start.p0(i64 8, ptr %5) #8
  store ptr null, ptr %5, align 8, !tbaa !4
  call void @llvm.lifetime.start.p0(i64 8, ptr %6) #8
  call void @llvm.lifetime.start.p0(i64 8, ptr %7) #8
  call void @llvm.lifetime.start.p0(i64 8, ptr %8) #8
  call void @llvm.lifetime.start.p0(i64 8, ptr %9) #8
  call void @llvm.lifetime.start.p0(i64 8, ptr %10) #8
  call void @llvm.lifetime.start.p0(i64 8, ptr %11) #8
  call void @llvm.lifetime.start.p0(i64 8, ptr %12) #8
  call void @llvm.lifetime.start.p0(i64 4, ptr %13) #8
  %20 = load ptr, ptr %3, align 8, !tbaa !4
  %21 = call i32 @Py_ReprEnter(ptr noundef %20)
  store i32 %21, ptr %13, align 4, !tbaa !15
  %22 = load i32, ptr %13, align 4, !tbaa !15
  %23 = icmp ne i32 %22, 0
  br i1 %23, label %24, label %30

24:                                               ; preds = %1
  %25 = load i32, ptr %13, align 4, !tbaa !15
  %26 = icmp slt i32 %25, 0
  br i1 %26, label %27, label %28

27:                                               ; preds = %24
  store ptr null, ptr %2, align 8
  store i32 1, ptr %14, align 4
  br label %125

28:                                               ; preds = %24
  %29 = call ptr @PyUnicode_FromString(ptr noundef @.str.20)
  store ptr %29, ptr %2, align 8
  store i32 1, ptr %14, align 4
  br label %125

30:                                               ; preds = %1
  %31 = call ptr @Py_GetConstant(i32 noundef 7)
  store ptr %31, ptr %6, align 8, !tbaa !4
  %32 = load ptr, ptr %6, align 8, !tbaa !4
  %33 = icmp eq ptr %32, null
  br i1 %33, label %34, label %35

34:                                               ; preds = %30
  br label %119

35:                                               ; preds = %30
  %36 = load ptr, ptr %4, align 8, !tbaa !9
  %37 = getelementptr inbounds nuw %struct.partialobject, ptr %36, i32 0, i32 2
  %38 = load ptr, ptr %37, align 8, !tbaa !138
  %39 = call i64 @PyTuple_GET_SIZE(ptr noundef %38)
  store i64 %39, ptr %10, align 8, !tbaa !27
  store i64 0, ptr %9, align 8, !tbaa !27
  br label %40

40:                                               ; preds = %65, %35
  %41 = load i64, ptr %9, align 8, !tbaa !27
  %42 = load i64, ptr %10, align 8, !tbaa !27
  %43 = icmp slt i64 %41, %42
  br i1 %43, label %44, label %68

44:                                               ; preds = %40
  br label %45

45:                                               ; preds = %44
  call void @llvm.lifetime.start.p0(i64 8, ptr %15) #8
  store ptr %6, ptr %15, align 8, !tbaa !22
  call void @llvm.lifetime.start.p0(i64 8, ptr %16) #8
  %46 = load ptr, ptr %15, align 8, !tbaa !22
  %47 = load ptr, ptr %46, align 8, !tbaa !4
  store ptr %47, ptr %16, align 8, !tbaa !4
  %48 = load ptr, ptr %6, align 8, !tbaa !4
  %49 = load ptr, ptr %4, align 8, !tbaa !9
  %50 = getelementptr inbounds nuw %struct.partialobject, ptr %49, i32 0, i32 2
  %51 = load ptr, ptr %50, align 8, !tbaa !138
  %52 = getelementptr inbounds nuw %struct.PyTupleObject, ptr %51, i32 0, i32 1
  %53 = load i64, ptr %9, align 8, !tbaa !27
  %54 = getelementptr [1 x ptr], ptr %52, i64 0, i64 %53
  %55 = load ptr, ptr %54, align 8, !tbaa !4
  %56 = call ptr (ptr, ...) @PyUnicode_FromFormat(ptr noundef @.str.21, ptr noundef %48, ptr noundef %55)
  %57 = load ptr, ptr %15, align 8, !tbaa !22
  store ptr %56, ptr %57, align 8, !tbaa !4
  %58 = load ptr, ptr %16, align 8, !tbaa !4
  call void @Py_DECREF(ptr noundef %58)
  call void @llvm.lifetime.end.p0(i64 8, ptr %16) #8
  call void @llvm.lifetime.end.p0(i64 8, ptr %15) #8
  br label %59

59:                                               ; preds = %45
  br label %60

60:                                               ; preds = %59
  %61 = load ptr, ptr %6, align 8, !tbaa !4
  %62 = icmp eq ptr %61, null
  br i1 %62, label %63, label %64

63:                                               ; preds = %60
  br label %119

64:                                               ; preds = %60
  br label %65

65:                                               ; preds = %64
  %66 = load i64, ptr %9, align 8, !tbaa !27
  %67 = add i64 %66, 1
  store i64 %67, ptr %9, align 8, !tbaa !27
  br label %40, !llvm.loop !139

68:                                               ; preds = %40
  store i64 0, ptr %9, align 8, !tbaa !27
  br label %69

69:                                               ; preds = %92, %68
  %70 = load ptr, ptr %4, align 8, !tbaa !9
  %71 = getelementptr inbounds nuw %struct.partialobject, ptr %70, i32 0, i32 3
  %72 = load ptr, ptr %71, align 8, !tbaa !141
  %73 = call i32 @PyDict_Next(ptr noundef %72, ptr noundef %9, ptr noundef %11, ptr noundef %12)
  %74 = icmp ne i32 %73, 0
  br i1 %74, label %75, label %93

75:                                               ; preds = %69
  %76 = load ptr, ptr %12, align 8, !tbaa !4
  call void @Py_INCREF(ptr noundef %76)
  br label %77

77:                                               ; preds = %75
  call void @llvm.lifetime.start.p0(i64 8, ptr %17) #8
  store ptr %6, ptr %17, align 8, !tbaa !22
  call void @llvm.lifetime.start.p0(i64 8, ptr %18) #8
  %78 = load ptr, ptr %17, align 8, !tbaa !22
  %79 = load ptr, ptr %78, align 8, !tbaa !4
  store ptr %79, ptr %18, align 8, !tbaa !4
  %80 = load ptr, ptr %6, align 8, !tbaa !4
  %81 = load ptr, ptr %11, align 8, !tbaa !4
  %82 = load ptr, ptr %12, align 8, !tbaa !4
  %83 = call ptr (ptr, ...) @PyUnicode_FromFormat(ptr noundef @.str.22, ptr noundef %80, ptr noundef %81, ptr noundef %82)
  %84 = load ptr, ptr %17, align 8, !tbaa !22
  store ptr %83, ptr %84, align 8, !tbaa !4
  %85 = load ptr, ptr %18, align 8, !tbaa !4
  call void @Py_DECREF(ptr noundef %85)
  call void @llvm.lifetime.end.p0(i64 8, ptr %18) #8
  call void @llvm.lifetime.end.p0(i64 8, ptr %17) #8
  br label %86

86:                                               ; preds = %77
  br label %87

87:                                               ; preds = %86
  %88 = load ptr, ptr %12, align 8, !tbaa !4
  call void @Py_DECREF(ptr noundef %88)
  %89 = load ptr, ptr %6, align 8, !tbaa !4
  %90 = icmp eq ptr %89, null
  br i1 %90, label %91, label %92

91:                                               ; preds = %87
  br label %119

92:                                               ; preds = %87
  br label %69, !llvm.loop !142

93:                                               ; preds = %69
  %94 = load ptr, ptr %4, align 8, !tbaa !9
  %95 = call ptr @_Py_TYPE(ptr noundef %94)
  %96 = call ptr @PyType_GetModuleName(ptr noundef %95)
  store ptr %96, ptr %7, align 8, !tbaa !4
  %97 = load ptr, ptr %7, align 8, !tbaa !4
  %98 = icmp eq ptr %97, null
  br i1 %98, label %99, label %100

99:                                               ; preds = %93
  br label %122

100:                                              ; preds = %93
  %101 = load ptr, ptr %4, align 8, !tbaa !9
  %102 = call ptr @_Py_TYPE(ptr noundef %101)
  %103 = call ptr @PyType_GetQualName(ptr noundef %102)
  store ptr %103, ptr %8, align 8, !tbaa !4
  %104 = load ptr, ptr %8, align 8, !tbaa !4
  %105 = icmp eq ptr %104, null
  br i1 %105, label %106, label %108

106:                                              ; preds = %100
  %107 = load ptr, ptr %7, align 8, !tbaa !4
  call void @Py_DECREF(ptr noundef %107)
  br label %122

108:                                              ; preds = %100
  %109 = load ptr, ptr %7, align 8, !tbaa !4
  %110 = load ptr, ptr %8, align 8, !tbaa !4
  %111 = load ptr, ptr %4, align 8, !tbaa !9
  %112 = getelementptr inbounds nuw %struct.partialobject, ptr %111, i32 0, i32 1
  %113 = load ptr, ptr %112, align 8, !tbaa !143
  %114 = load ptr, ptr %6, align 8, !tbaa !4
  %115 = call ptr (ptr, ...) @PyUnicode_FromFormat(ptr noundef @.str.23, ptr noundef %109, ptr noundef %110, ptr noundef %113, ptr noundef %114)
  store ptr %115, ptr %5, align 8, !tbaa !4
  %116 = load ptr, ptr %7, align 8, !tbaa !4
  call void @Py_DECREF(ptr noundef %116)
  %117 = load ptr, ptr %8, align 8, !tbaa !4
  call void @Py_DECREF(ptr noundef %117)
  %118 = load ptr, ptr %6, align 8, !tbaa !4
  call void @Py_DECREF(ptr noundef %118)
  br label %119

119:                                              ; preds = %108, %91, %63, %34
  %120 = load ptr, ptr %3, align 8, !tbaa !4
  call void @Py_ReprLeave(ptr noundef %120)
  %121 = load ptr, ptr %5, align 8, !tbaa !4
  store ptr %121, ptr %2, align 8
  store i32 1, ptr %14, align 4
  br label %125

122:                                              ; preds = %106, %99
  %123 = load ptr, ptr %6, align 8, !tbaa !4
  call void @Py_DECREF(ptr noundef %123)
  %124 = load ptr, ptr %3, align 8, !tbaa !4
  call void @Py_ReprLeave(ptr noundef %124)
  store ptr null, ptr %2, align 8
  store i32 1, ptr %14, align 4
  br label %125

125:                                              ; preds = %122, %119, %28, %27
  call void @llvm.lifetime.end.p0(i64 4, ptr %13) #8
  call void @llvm.lifetime.end.p0(i64 8, ptr %12) #8
  call void @llvm.lifetime.end.p0(i64 8, ptr %11) #8
  call void @llvm.lifetime.end.p0(i64 8, ptr %10) #8
  call void @llvm.lifetime.end.p0(i64 8, ptr %9) #8
  call void @llvm.lifetime.end.p0(i64 8, ptr %8) #8
  call void @llvm.lifetime.end.p0(i64 8, ptr %7) #8
  call void @llvm.lifetime.end.p0(i64 8, ptr %6) #8
  call void @llvm.lifetime.end.p0(i64 8, ptr %5) #8
  call void @llvm.lifetime.end.p0(i64 8, ptr %4) #8
  %126 = load ptr, ptr %2, align 8
  ret ptr %126
}