; Function Attrs: nounwind uwtable
define internal ptr @partial_repr(ptr noundef %0) #0 {
  %2 = alloca i64, align 8
  %3 = alloca ptr, align 8
  %4 = alloca ptr, align 8
  call void @llvm.lifetime.start.p0(i64 8, ptr nonnull %2) #9
  call void @llvm.lifetime.start.p0(i64 8, ptr nonnull %3) #9
  call void @llvm.lifetime.start.p0(i64 8, ptr nonnull %4) #9
  %5 = tail call i32 @Py_ReprEnter(ptr noundef %0) #9
  %.not = icmp eq i32 %5, 0
  br i1 %.not, label %10, label %6

6:                                                ; preds = %1
  %7 = icmp slt i32 %5, 0
  br i1 %7, label %95, label %8

8:                                                ; preds = %6
  %9 = tail call ptr @PyUnicode_FromString(ptr noundef nonnull @.str.20) #9
  br label %95

10:                                               ; preds = %1
  %11 = tail call ptr @Py_GetConstant(i32 noundef 7) #9
  %12 = icmp eq ptr %11, null
  br i1 %12, label %Py_DECREF.exit47, label %13

13:                                               ; preds = %10
  %14 = getelementptr inbounds nuw i8, ptr %0, i64 24
  %15 = load ptr, ptr %14, align 8, !tbaa !128
  %16 = getelementptr i8, ptr %15, i64 16
  %.val68 = load i64, ptr %16, align 8, !tbaa !23
  store i64 0, ptr %2, align 8, !tbaa !129
  %17 = icmp sgt i64 %.val68, 0
  br i1 %17, label %.lr.ph, label %._crit_edge

.lr.ph:                                           ; preds = %13, %30
  %.03773 = phi ptr [ %23, %30 ], [ %11, %13 ]
  %18 = phi i64 [ %31, %30 ], [ 0, %13 ]
  %19 = load ptr, ptr %14, align 8, !tbaa !128
  %20 = getelementptr inbounds nuw i8, ptr %19, i64 24
  %21 = getelementptr [1 x ptr], ptr %20, i64 0, i64 %18
  %22 = load ptr, ptr %21, align 8, !tbaa !20
  %23 = tail call ptr (ptr, ...) @PyUnicode_FromFormat(ptr noundef nonnull @.str.21, ptr noundef nonnull %.03773, ptr noundef %22) #9
  %24 = load i32, ptr %.03773, align 8, !tbaa !21
  %.not.i58 = icmp sgt i32 %24, -1
  br i1 %.not.i58, label %25, label %Py_DECREF.exit59

25:                                               ; preds = %.lr.ph
  %26 = add nsw i32 %24, -1
  store i32 %26, ptr %.03773, align 8, !tbaa !21
  %27 = icmp eq i32 %26, 0
  br i1 %27, label %28, label %Py_DECREF.exit59

28:                                               ; preds = %25
  tail call void @_Py_Dealloc(ptr noundef nonnull %.03773) #9
  br label %Py_DECREF.exit59

Py_DECREF.exit59:                                 ; preds = %.lr.ph, %25, %28
  %29 = icmp eq ptr %23, null
  br i1 %29, label %Py_DECREF.exit47, label %30

30:                                               ; preds = %Py_DECREF.exit59
  %31 = add nuw nsw i64 %18, 1
  store i64 %31, ptr %2, align 8, !tbaa !129
  %32 = icmp slt i64 %31, %.val68
  br i1 %32, label %.lr.ph, label %._crit_edge, !llvm.loop !130

._crit_edge:                                      ; preds = %30, %13
  %.037.lcssa = phi ptr [ %11, %13 ], [ %23, %30 ]
  store i64 0, ptr %2, align 8, !tbaa !129
  %33 = getelementptr inbounds nuw i8, ptr %0, i64 32
  br label %34

34:                                               ; preds = %Py_DECREF.exit55, %._crit_edge
  %.1 = phi ptr [ %.037.lcssa, %._crit_edge ], [ %45, %Py_DECREF.exit55 ]
  %35 = load ptr, ptr %33, align 8, !tbaa !132
  %36 = call i32 @PyDict_Next(ptr noundef %35, ptr noundef nonnull %2, ptr noundef nonnull %3, ptr noundef nonnull %4) #9
  %.not45 = icmp eq i32 %36, 0
  br i1 %.not45, label %58, label %37

37:                                               ; preds = %34
  %38 = load ptr, ptr %4, align 8, !tbaa !20
  %39 = load i32, ptr %38, align 8, !tbaa !21
  %40 = icmp slt i32 %39, 0
  br i1 %40, label %Py_INCREF.exit, label %41

41:                                               ; preds = %37
  %42 = add nuw i32 %39, 1
  store i32 %42, ptr %38, align 8, !tbaa !21
  %.pre = load ptr, ptr %4, align 8, !tbaa !20
  br label %Py_INCREF.exit

Py_INCREF.exit:                                   ; preds = %37, %41
  %43 = phi ptr [ %38, %37 ], [ %.pre, %41 ]
  %44 = load ptr, ptr %3, align 8, !tbaa !20
  %45 = call ptr (ptr, ...) @PyUnicode_FromFormat(ptr noundef nonnull @.str.22, ptr noundef nonnull %.1, ptr noundef %44, ptr noundef %43) #9
  %46 = load i32, ptr %.1, align 8, !tbaa !21
  %.not.i56 = icmp sgt i32 %46, -1
  br i1 %.not.i56, label %47, label %Py_DECREF.exit57

47:                                               ; preds = %Py_INCREF.exit
  %48 = add nsw i32 %46, -1
  store i32 %48, ptr %.1, align 8, !tbaa !21
  %49 = icmp eq i32 %48, 0
  br i1 %49, label %50, label %Py_DECREF.exit57

50:                                               ; preds = %47
  call void @_Py_Dealloc(ptr noundef nonnull %.1) #9
  br label %Py_DECREF.exit57

Py_DECREF.exit57:                                 ; preds = %Py_INCREF.exit, %47, %50
  %51 = load ptr, ptr %4, align 8, !tbaa !20
  %52 = load i32, ptr %51, align 8, !tbaa !21
  %.not.i54 = icmp sgt i32 %52, -1
  br i1 %.not.i54, label %53, label %Py_DECREF.exit55

53:                                               ; preds = %Py_DECREF.exit57
  %54 = add nsw i32 %52, -1
  store i32 %54, ptr %51, align 8, !tbaa !21
  %55 = icmp eq i32 %54, 0
  br i1 %55, label %56, label %Py_DECREF.exit55

56:                                               ; preds = %53
  call void @_Py_Dealloc(ptr noundef nonnull %51) #9
  br label %Py_DECREF.exit55

Py_DECREF.exit55:                                 ; preds = %Py_DECREF.exit57, %53, %56
  %57 = icmp eq ptr %45, null
  br i1 %57, label %Py_DECREF.exit47, label %34, !llvm.loop !133

58:                                               ; preds = %34
  %59 = getelementptr i8, ptr %0, i64 8
  %.val67 = load ptr, ptr %59, align 8, !tbaa !113
  %60 = call ptr @PyType_GetModuleName(ptr noundef %.val67) #9
  %61 = icmp eq ptr %60, null
  br i1 %61, label %Py_DECREF.exit53, label %62

62:                                               ; preds = %58
  %.val = load ptr, ptr %59, align 8, !tbaa !113
  %63 = call ptr @PyType_GetQualName(ptr noundef %.val) #9
  %64 = icmp eq ptr %63, null
  br i1 %64, label %65, label %71

65:                                               ; preds = %62
  %66 = load i32, ptr %60, align 8, !tbaa !21
  %.not.i52 = icmp sgt i32 %66, -1
  br i1 %.not.i52, label %67, label %Py_DECREF.exit53

67:                                               ; preds = %65
  %68 = add nsw i32 %66, -1
  store i32 %68, ptr %60, align 8, !tbaa !21
  %69 = icmp eq i32 %68, 0
  br i1 %69, label %70, label %Py_DECREF.exit53

70:                                               ; preds = %67
  call void @_Py_Dealloc(ptr noundef nonnull %60) #9
  br label %Py_DECREF.exit53

71:                                               ; preds = %62
  %72 = getelementptr inbounds nuw i8, ptr %0, i64 16
  %73 = load ptr, ptr %72, align 8, !tbaa !134
  %74 = call ptr (ptr, ...) @PyUnicode_FromFormat(ptr noundef nonnull @.str.23, ptr noundef nonnull %60, ptr noundef nonnull %63, ptr noundef %73, ptr noundef nonnull %.1) #9
  %75 = load i32, ptr %60, align 8, !tbaa !21
  %.not.i50 = icmp sgt i32 %75, -1
  br i1 %.not.i50, label %76, label %Py_DECREF.exit51

76:                                               ; preds = %71
  %77 = add nsw i32 %75, -1
  store i32 %77, ptr %60, align 8, !tbaa !21
  %78 = icmp eq i32 %77, 0
  br i1 %78, label %79, label %Py_DECREF.exit51

79:                                               ; preds = %76
  call void @_Py_Dealloc(ptr noundef nonnull %60) #9
  br label %Py_DECREF.exit51

Py_DECREF.exit51:                                 ; preds = %71, %76, %79
  %80 = load i32, ptr %63, align 8, !tbaa !21
  %.not.i48 = icmp sgt i32 %80, -1
  br i1 %.not.i48, label %81, label %Py_DECREF.exit49

81:                                               ; preds = %Py_DECREF.exit51
  %82 = add nsw i32 %80, -1
  store i32 %82, ptr %63, align 8, !tbaa !21
  %83 = icmp eq i32 %82, 0
  br i1 %83, label %84, label %Py_DECREF.exit49

84:                                               ; preds = %81
  call void @_Py_Dealloc(ptr noundef nonnull %63) #9
  br label %Py_DECREF.exit49

Py_DECREF.exit49:                                 ; preds = %Py_DECREF.exit51, %81, %84
  %85 = load i32, ptr %.1, align 8, !tbaa !21
  %.not.i46 = icmp sgt i32 %85, -1
  br i1 %.not.i46, label %86, label %Py_DECREF.exit47

86:                                               ; preds = %Py_DECREF.exit49
  %87 = add nsw i32 %85, -1
  store i32 %87, ptr %.1, align 8, !tbaa !21
  %88 = icmp eq i32 %87, 0
  br i1 %88, label %89, label %Py_DECREF.exit47

89:                                               ; preds = %86
  call void @_Py_Dealloc(ptr noundef nonnull %.1) #9
  br label %Py_DECREF.exit47

Py_DECREF.exit47:                                 ; preds = %Py_DECREF.exit59, %Py_DECREF.exit55, %89, %86, %Py_DECREF.exit49, %10
  %.027 = phi ptr [ null, %10 ], [ %74, %Py_DECREF.exit49 ], [ %74, %86 ], [ %74, %89 ], [ null, %Py_DECREF.exit55 ], [ null, %Py_DECREF.exit59 ]
  call void @Py_ReprLeave(ptr noundef %0) #9
  br label %95

Py_DECREF.exit53:                                 ; preds = %70, %67, %65, %58
  %90 = load i32, ptr %.1, align 8, !tbaa !21
  %.not.i = icmp sgt i32 %90, -1
  br i1 %.not.i, label %91, label %Py_DECREF.exit

91:                                               ; preds = %Py_DECREF.exit53
  %92 = add nsw i32 %90, -1
  store i32 %92, ptr %.1, align 8, !tbaa !21
  %93 = icmp eq i32 %92, 0
  br i1 %93, label %94, label %Py_DECREF.exit

94:                                               ; preds = %91
  call void @_Py_Dealloc(ptr noundef nonnull %.1) #9
  br label %Py_DECREF.exit

Py_DECREF.exit:                                   ; preds = %Py_DECREF.exit53, %91, %94
  call void @Py_ReprLeave(ptr noundef nonnull %0) #9
  br label %95

95:                                               ; preds = %6, %Py_DECREF.exit, %Py_DECREF.exit47, %8
  %.0 = phi ptr [ %9, %8 ], [ %.027, %Py_DECREF.exit47 ], [ null, %Py_DECREF.exit ], [ null, %6 ]
  call void @llvm.lifetime.end.p0(i64 8, ptr nonnull %4) #9
  call void @llvm.lifetime.end.p0(i64 8, ptr nonnull %3) #9
  call void @llvm.lifetime.end.p0(i64 8, ptr nonnull %2) #9
  ret ptr %.0
}